target datalayout = "e-m:e-p270:32:32-p271:32:32-p272:64:64-i64:64-i128:128-f80:128-n8:16:32:64-S128"
target triple = "x86_64-pc-linux-gnu"

%struct._object = type { i64, ptr }
%"class.nanobind::builtin_exception" = type <{ %"class.std::runtime_error", i32, [4 x i8] }>
%"class.std::runtime_error" = type { %"class.std::exception", %"struct.std::__cow_string" }
%"class.std::exception" = type { ptr }
%"struct.std::__cow_string" = type { %union.anon }
%union.anon = type { ptr }
%class.anon.73 = type { i8 }

@_Py_NoneStruct = external global %struct._object, align 8
@_ZTIN8nanobind17builtin_exceptionE = external constant ptr
@.str.31 = private unnamed_addr constant [14 x i8] c"a value error\00", align 1

; Function Attrs: inlinehint mustprogress nounwind optsize uwtable
define internal void @_ZL10_Py_INCREFP7_object(ptr noundef %0) #10 {
  %2 = alloca ptr, align 8
  store ptr %0, ptr %2, align 8, !tbaa !3
  %3 = load ptr, ptr %2, align 8, !tbaa !3
  %4 = getelementptr inbounds nuw %struct._object, ptr %3, i32 0, i32 0
  %5 = load i64, ptr %4, align 8, !tbaa !20
  %6 = add nsw i64 %5, 1
  store i64 %6, ptr %4, align 8, !tbaa !20
  ret void
}

; Function Attrs: inlinehint mustprogress optsize uwtable
define internal void @"_ZZL32nanobind_init_test_exception_extRN8nanobind7module_EENK4$_11clEv"(ptr noundef nonnull align 1 dereferenceable(1) %0) #9 align 2 personality ptr @__gxx_personality_v0 {
  %2 = alloca ptr, align 8
  %3 = alloca ptr, align 8
  %4 = alloca i32, align 4
  store ptr %0, ptr %2, align 8, !tbaa !26
  %5 = call ptr @__cxa_allocate_exception(i64 24) #16
  invoke void @_ZN8nanobind11value_errorEPKc(ptr dead_on_unwind writable sret(%"class.nanobind::builtin_exception") align 8 %5, ptr noundef @.str.31) #15
          to label %6 unwind label %7

6:                                                ; preds = %1
  call void @__cxa_throw(ptr %5, ptr @_ZTIN8nanobind17builtin_exceptionE, ptr @_ZN8nanobind17builtin_exceptionD1Ev) #19
  unreachable

7:                                                ; preds = %1
  %8 = landingpad { ptr, i32 }
          cleanup
  %9 = extractvalue { ptr, i32 } %8, 0
  store ptr %9, ptr %3, align 8
  %10 = extractvalue { ptr, i32 } %8, 1
  store i32 %10, ptr %4, align 4
  call void @__cxa_free_exception(ptr %5) #16
  br label %11

11:                                               ; preds = %7
  %12 = load ptr, ptr %3, align 8
  %13 = load i32, ptr %4, align 4
  %14 = insertvalue { ptr, i32 } poison, ptr %12, 0
  %15 = insertvalue { ptr, i32 } %14, i32 %13, 1
  resume { ptr, i32 } %15
}

; Function Attrs: alwaysinline mustprogress optsize uwtable
define internal noundef ptr @"_ZZN8nanobind6detail11func_createILb0ELb1EZL32nanobind_init_test_exception_extRNS_7module_EE4$_11vJETpTnmJEJNS_5scopeENS_4nameEEEEP7_objectOT1_PFT2_DpT3_ESt16integer_sequenceImJXspT4_EEEDpRKT5_ENKUlPvPS8_PhNS_9rv_policyEPNS0_12cleanup_listEE_clESM_SN_SO_SP_SR_"(ptr noundef nonnull align 1 dereferenceable(1) %0, ptr noundef %1, ptr noundef %2, ptr noundef %3, i32 noundef %4, ptr noundef %5) #3 align 2 {
  %7 = alloca ptr, align 8
  %8 = alloca ptr, align 8
  %9 = alloca ptr, align 8
  %10 = alloca ptr, align 8
  %11 = alloca i32, align 4
  %12 = alloca ptr, align 8
  %13 = alloca ptr, align 8
  %14 = alloca ptr, align 8
  store ptr %0, ptr %7, align 8, !tbaa !26
  store ptr %1, ptr %8, align 8, !tbaa !26
  store ptr %2, ptr %9, align 8, !tbaa !64
  store ptr %3, ptr %10, align 8, !tbaa !24
  store i32 %4, ptr %11, align 4, !tbaa !66
  store ptr %5, ptr %12, align 8, !tbaa !68
  call void @llvm.lifetime.start.p0(i64 8, ptr %13) #16
  %15 = load ptr, ptr %8, align 8, !tbaa !26
  store ptr %15, ptr %13, align 8, !tbaa !92
  call void @llvm.lifetime.start.p0(i64 8, ptr %14) #16
  %16 = load ptr, ptr %13, align 8, !tbaa !92
  call void @"_ZZL32nanobind_init_test_exception_extRN8nanobind7module_EENK4$_11clEv"(ptr noundef nonnull align 1 dereferenceable(1) %16) #15
  store ptr @_Py_NoneStruct, ptr %14, align 8, !tbaa !3
  %17 = load ptr, ptr %14, align 8, !tbaa !3
  call void @_ZL10_Py_INCREFP7_object(ptr noundef %17) #15
  %18 = load ptr, ptr %14, align 8, !tbaa !3
  call void @llvm.lifetime.end.p0(i64 8, ptr %14) #16
  call void @llvm.lifetime.end.p0(i64 8, ptr %13) #16
  ret ptr %18
}

; Function Attrs: inlinehint mustprogress optsize uwtable
define internal noundef ptr @"_ZZN8nanobind6detail11func_createILb0ELb1EZL32nanobind_init_test_exception_extRNS_7module_EE4$_11vJETpTnmJEJNS_5scopeENS_4nameEEEEP7_objectOT1_PFT2_DpT3_ESt16integer_sequenceImJXspT4_EEEDpRKT5_ENUlPvPS8_PhNS_9rv_policyEPNS0_12cleanup_listEE_8__invokeESM_SN_SO_SP_SR_"(ptr noundef %0, ptr noundef %1, ptr noundef %2, i32 noundef %3, ptr noundef %4) #9 align 2 {
  %6 = alloca ptr, align 8
  %7 = alloca ptr, align 8
  %8 = alloca ptr, align 8
  %9 = alloca i32, align 4
  %10 = alloca ptr, align 8
  %11 = alloca %class.anon.73, align 1
  store ptr %0, ptr %6, align 8, !tbaa !26
  store ptr %1, ptr %7, align 8, !tbaa !64
  store ptr %2, ptr %8, align 8, !tbaa !24
  store i32 %3, ptr %9, align 4, !tbaa !66
  store ptr %4, ptr %10, align 8, !tbaa !68
  %12 = load ptr, ptr %6, align 8, !tbaa !26
  %13 = load ptr, ptr %7, align 8, !tbaa !64
  %14 = load ptr, ptr %8, align 8, !tbaa !24
  %15 = load i32, ptr %9, align 4, !tbaa !66
  %16 = load ptr, ptr %10, align 8, !tbaa !68
  %17 = call noundef ptr @"_ZZN8nanobind6detail11func_createILb0ELb1EZL32nanobind_init_test_exception_extRNS_7module_EE4$_11vJETpTnmJEJNS_5scopeENS_4nameEEEEP7_objectOT1_PFT2_DpT3_ESt16integer_sequenceImJXspT4_EEEDpRKT5_ENKUlPvPS8_PhNS_9rv_policyEPNS0_12cleanup_listEE_clESM_SN_SO_SP_SR_"(ptr noundef nonnull align 1 dereferenceable(1) %11, ptr noundef %12, ptr noundef %13, ptr noundef %14, i32 noundef %15, ptr noundef %16) #15
  ret ptr %17
}